target datalayout = "e-m:e-p270:32:32-p271:32:32-p272:64:64-i64:64-i128:128-f80:128-n8:16:32:64-S128"
target triple = "x86_64-pc-linux-gnu"

%struct.AVRational = type { i32, i32 }
%struct.AVChannelLayout = type { i32, i32, %union.anon.0, ptr }
%union.anon.0 = type { i64 }
%struct.IpvideoContext = type { ptr, %struct.HpelDSPContext, ptr, ptr, ptr, ptr, ptr, i32, ptr, i32, i32, %struct.GetByteContext, %struct.GetByteContext, ptr, i32, i32, i32, [256 x i32] }
%struct.HpelDSPContext = type { [4 x [4 x ptr]], [4 x [4 x ptr]], [4 x [4 x ptr]], [4 x ptr] }
%struct.GetByteContext = type { ptr, ptr, ptr }
%struct.AVFrame = type { [8 x ptr], [8 x i32], ptr, i32, i32, i32, i32, i32, %struct.AVRational, i64, i64, %struct.AVRational, i32, ptr, i32, i32, [8 x ptr], ptr, i32, ptr, i32, i32, i32, i32, i32, i32, i32, i64, ptr, i32, ptr, ptr, i64, i64, i64, i64, ptr, %struct.AVChannelLayout, i64 }

; Function Attrs: nounwind uwtable
define internal void @ipvideo_format_06_secondpass(ptr noundef %0, ptr noundef %1, i16 noundef signext %2) #1 {
  %4 = alloca ptr, align 8
  %5 = alloca ptr, align 8
  %6 = alloca i16, align 2
  %7 = alloca i32, align 4
  %8 = alloca i32, align 4
  store ptr %0, ptr %4, align 8, !tbaa !29
  store ptr %1, ptr %5, align 8, !tbaa !53
  store i16 %2, ptr %6, align 2, !tbaa !75
  call void @llvm.lifetime.start.p0(i64 4, ptr %7) #11
  call void @llvm.lifetime.start.p0(i64 4, ptr %8) #11
  %9 = load i16, ptr %6, align 2, !tbaa !75
  %10 = sext i16 %9 to i32
  %11 = icmp slt i32 %10, 0
  br i1 %11, label %12, label %35

12:                                               ; preds = %3
  %13 = load i16, ptr %6, align 2, !tbaa !75
  %14 = zext i16 %13 to i32
  %15 = sub nsw i32 %14, 49152
  %16 = load ptr, ptr %5, align 8, !tbaa !53
  %17 = getelementptr inbounds nuw %struct.AVFrame, ptr %16, i32 0, i32 3
  %18 = load i32, ptr %17, align 8, !tbaa !45
  %19 = srem i32 %15, %18
  store i32 %19, ptr %7, align 4, !tbaa !61
  %20 = load i16, ptr %6, align 2, !tbaa !75
  %21 = zext i16 %20 to i32
  %22 = sub nsw i32 %21, 49152
  %23 = load ptr, ptr %5, align 8, !tbaa !53
  %24 = getelementptr inbounds nuw %struct.AVFrame, ptr %23, i32 0, i32 3
  %25 = load i32, ptr %24, align 8, !tbaa !45
  %26 = sdiv i32 %22, %25
  store i32 %26, ptr %8, align 4, !tbaa !61
  %27 = load ptr, ptr %4, align 8, !tbaa !29
  %28 = load ptr, ptr %4, align 8, !tbaa !29
  %29 = getelementptr inbounds nuw %struct.IpvideoContext, ptr %28, i32 0, i32 3
  %30 = load ptr, ptr %29, align 8, !tbaa !40
  %31 = load ptr, ptr %5, align 8, !tbaa !53
  %32 = load i32, ptr %7, align 4, !tbaa !61
  %33 = load i32, ptr %8, align 4, !tbaa !61
  %34 = call i32 @copy_from(ptr noundef %27, ptr noundef %30, ptr noundef %31, i32 noundef %32, i32 noundef %33)
  br label %61

35:                                               ; preds = %3
  %36 = load i16, ptr %6, align 2, !tbaa !75
  %37 = sext i16 %36 to i32
  %38 = icmp sgt i32 %37, 0
  br i1 %38, label %39, label %60

39:                                               ; preds = %35
  %40 = load i16, ptr %6, align 2, !tbaa !75
  %41 = zext i16 %40 to i32
  %42 = sub nsw i32 %41, 16384
  %43 = load ptr, ptr %5, align 8, !tbaa !53
  %44 = getelementptr inbounds nuw %struct.AVFrame, ptr %43, i32 0, i32 3
  %45 = load i32, ptr %44, align 8, !tbaa !45
  %46 = srem i32 %42, %45
  store i32 %46, ptr %7, align 4, !tbaa !61
  %47 = load i16, ptr %6, align 2, !tbaa !75
  %48 = zext i16 %47 to i32
  %49 = sub nsw i32 %48, 16384
  %50 = load ptr, ptr %5, align 8, !tbaa !53
  %51 = getelementptr inbounds nuw %struct.AVFrame, ptr %50, i32 0, i32 3
  %52 = load i32, ptr %51, align 8, !tbaa !45
  %53 = sdiv i32 %49, %52
  store i32 %53, ptr %8, align 4, !tbaa !61
  %54 = load ptr, ptr %4, align 8, !tbaa !29
  %55 = load ptr, ptr %5, align 8, !tbaa !53
  %56 = load ptr, ptr %5, align 8, !tbaa !53
  %57 = load i32, ptr %7, align 4, !tbaa !61
  %58 = load i32, ptr %8, align 4, !tbaa !61
  %59 = call i32 @copy_from(ptr noundef %54, ptr noundef %55, ptr noundef %56, i32 noundef %57, i32 noundef %58)
  br label %60

60:                                               ; preds = %39, %35
  br label %61

61:                                               ; preds = %60, %12
  call void @llvm.lifetime.end.p0(i64 4, ptr %8) #11
  call void @llvm.lifetime.end.p0(i64 4, ptr %7) #11
  ret void
}