; Function Attrs: nounwind uwtable
define internal void @ipvideo_format_06_secondpass(ptr noundef readonly captures(none) %0, ptr noundef readonly captures(none) %1, i16 noundef signext %2) #1 {
  %4 = icmp slt i16 %2, 0
  br i1 %4, label %5, label %15

5:                                                ; preds = %3
  %6 = zext i16 %2 to i32
  %7 = add nsw i32 %6, -49152
  %8 = getelementptr inbounds nuw i8, ptr %1, i64 104
  %9 = load i32, ptr %8, align 8, !tbaa !42
  %10 = srem i32 %7, %9
  %11 = sdiv i32 %7, %9
  %12 = getelementptr inbounds nuw i8, ptr %0, i64 432
  %13 = load ptr, ptr %12, align 8, !tbaa !37
  %14 = tail call fastcc i32 @copy_from(ptr noundef %0, ptr noundef %13, ptr noundef %1, i32 noundef %10, i32 noundef %11)
  br label %24

15:                                               ; preds = %3
  %.not = icmp eq i16 %2, 0
  br i1 %.not, label %24, label %16

16:                                               ; preds = %15
  %17 = zext nneg i16 %2 to i32
  %18 = add nsw i32 %17, -16384
  %19 = getelementptr inbounds nuw i8, ptr %1, i64 104
  %20 = load i32, ptr %19, align 8, !tbaa !42
  %21 = srem i32 %18, %20
  %22 = sdiv i32 %18, %20
  %23 = tail call fastcc i32 @copy_from(ptr noundef %0, ptr noundef %1, ptr noundef %1, i32 noundef %21, i32 noundef %22)
  br label %24

24:                                               ; preds = %15, %16, %5
  ret void
}